; Function Attrs: mustprogress nounwind uwtable
define internal noundef zeroext i1 @_ZNK12_GLOBAL__N_120UnexploredFirstStack7hasWorkEv(ptr noundef nonnull align 8 dereferenceable(1352) %0) unnamed_addr #3 align 2 {
  %2 = getelementptr inbounds nuw i8, ptr %0, i64 16
  %3 = tail call noundef zeroext i1 @_ZNK4llvm15SmallVectorBaseIjE5emptyEv(ptr noundef nonnull align 8 dereferenceable(16) %2) #17
  br i1 %3, label %4, label %8

4:                                                ; preds = %1
  %5 = getelementptr inbounds nuw i8, ptr %0, i64 672
  %6 = tail call noundef zeroext i1 @_ZNK4llvm15SmallVectorBaseIjE5emptyEv(ptr noundef nonnull align 8 dereferenceable(16) %5) #17
  %7 = xor i1 %6, true
  br label %8

8:                                                ; preds = %4, %1
  %9 = phi i1 [ true, %1 ], [ %7, %4 ]
  ret i1 %9
}